target datalayout = "e-m:e-p270:32:32-p271:32:32-p272:64:64-i64:64-i128:128-f80:128-n8:16:32:64-S128"
target triple = "x86_64-pc-linux-gnu"

%struct.FT_Vector_ = type { i64, i64 }
%struct.SDF_Shape_ = type { ptr, ptr }
%struct.SDF_Contour_ = type { %struct.FT_Vector_, ptr, ptr }
%struct.SDF_Edge_ = type { %struct.FT_Vector_, %struct.FT_Vector_, %struct.FT_Vector_, %struct.FT_Vector_, i32, ptr }

@null_edge = internal constant { %struct.FT_Vector_, %struct.FT_Vector_, %struct.FT_Vector_, %struct.FT_Vector_, i32, [4 x i8], ptr } zeroinitializer, align 8

; Function Attrs: nounwind uwtable
define internal i32 @sdf_edge_new(ptr noundef %0, ptr noundef %1) #0 {
  %3 = alloca ptr, align 8
  %4 = alloca ptr, align 8
  %5 = alloca i32, align 4
  %6 = alloca ptr, align 8
  store ptr %0, ptr %3, align 8, !tbaa !38
  store ptr %1, ptr %4, align 8, !tbaa !192
  call void @llvm.lifetime.start.p0(i64 4, ptr %5) #7
  store i32 0, ptr %5, align 4, !tbaa !31
  call void @llvm.lifetime.start.p0(i64 8, ptr %6) #7
  store ptr null, ptr %6, align 8, !tbaa !182
  %7 = load ptr, ptr %3, align 8, !tbaa !38
  %8 = icmp ne ptr %7, null
  br i1 %8, label %9, label %12

9:                                                ; preds = %2
  %10 = load ptr, ptr %4, align 8, !tbaa !192
  %11 = icmp ne ptr %10, null
  br i1 %11, label %13, label %12

12:                                               ; preds = %9, %2
  store i32 6, ptr %5, align 4, !tbaa !31
  br label %23

13:                                               ; preds = %9
  %14 = load ptr, ptr %3, align 8, !tbaa !38
  %15 = call ptr @ft_mem_qalloc(ptr noundef %14, i64 noundef 80, ptr noundef %5)
  store ptr %15, ptr %6, align 8, !tbaa !182
  %16 = load i32, ptr %5, align 4, !tbaa !31
  %17 = icmp ne i32 %16, 0
  br i1 %17, label %22, label %18

18:                                               ; preds = %13
  %19 = load ptr, ptr %6, align 8, !tbaa !182
  call void @llvm.memcpy.p0.p0.i64(ptr align 8 %19, ptr align 8 @null_edge, i64 80, i1 false), !tbaa.struct !194
  %20 = load ptr, ptr %6, align 8, !tbaa !182
  %21 = load ptr, ptr %4, align 8, !tbaa !192
  store ptr %20, ptr %21, align 8, !tbaa !182
  br label %22

22:                                               ; preds = %18, %13
  br label %23

23:                                               ; preds = %22, %12
  %24 = load i32, ptr %5, align 4, !tbaa !31
  call void @llvm.lifetime.end.p0(i64 8, ptr %6) #7
  call void @llvm.lifetime.end.p0(i64 4, ptr %5) #7
  ret i32 %24
}

; Function Attrs: nounwind uwtable
define internal i32 @sdf_cubic_to(ptr noundef %0, ptr noundef %1, ptr noundef %2, ptr noundef %3) #0 {
  %5 = alloca ptr, align 8
  %6 = alloca ptr, align 8
  %7 = alloca ptr, align 8
  %8 = alloca ptr, align 8
  %9 = alloca ptr, align 8
  %10 = alloca ptr, align 8
  %11 = alloca ptr, align 8
  %12 = alloca i32, align 4
  %13 = alloca ptr, align 8
  store ptr %0, ptr %5, align 8, !tbaa !32
  store ptr %1, ptr %6, align 8, !tbaa !32
  store ptr %2, ptr %7, align 8, !tbaa !32
  store ptr %3, ptr %8, align 8, !tbaa !85
  call void @llvm.lifetime.start.p0(i64 8, ptr %9) #7
  %14 = load ptr, ptr %8, align 8, !tbaa !85
  store ptr %14, ptr %9, align 8, !tbaa !121
  call void @llvm.lifetime.start.p0(i64 8, ptr %10) #7
  store ptr null, ptr %10, align 8, !tbaa !182
  call void @llvm.lifetime.start.p0(i64 8, ptr %11) #7
  store ptr null, ptr %11, align 8, !tbaa !167
  call void @llvm.lifetime.start.p0(i64 4, ptr %12) #7
  store i32 0, ptr %12, align 4, !tbaa !31
  call void @llvm.lifetime.start.p0(i64 8, ptr %13) #7
  %15 = load ptr, ptr %9, align 8, !tbaa !121
  %16 = getelementptr inbounds nuw %struct.SDF_Shape_, ptr %15, i32 0, i32 0
  %17 = load ptr, ptr %16, align 8, !tbaa !169
  store ptr %17, ptr %13, align 8, !tbaa !38
  %18 = load ptr, ptr %6, align 8, !tbaa !32
  %19 = icmp ne ptr %18, null
  br i1 %19, label %20, label %29

20:                                               ; preds = %4
  %21 = load ptr, ptr %5, align 8, !tbaa !32
  %22 = icmp ne ptr %21, null
  br i1 %22, label %23, label %29

23:                                               ; preds = %20
  %24 = load ptr, ptr %7, align 8, !tbaa !32
  %25 = icmp ne ptr %24, null
  br i1 %25, label %26, label %29

26:                                               ; preds = %23
  %27 = load ptr, ptr %8, align 8, !tbaa !85
  %28 = icmp ne ptr %27, null
  br i1 %28, label %30, label %29

29:                                               ; preds = %26, %23, %20, %4
  store i32 6, ptr %12, align 4, !tbaa !31
  br label %69

30:                                               ; preds = %26
  %31 = load ptr, ptr %9, align 8, !tbaa !121
  %32 = getelementptr inbounds nuw %struct.SDF_Shape_, ptr %31, i32 0, i32 1
  %33 = load ptr, ptr %32, align 8, !tbaa !171
  store ptr %33, ptr %11, align 8, !tbaa !167
  br label %34

34:                                               ; preds = %30
  %35 = load ptr, ptr %13, align 8, !tbaa !38
  %36 = call i32 @sdf_edge_new(ptr noundef %35, ptr noundef %10)
  store i32 %36, ptr %12, align 4, !tbaa !31
  %37 = load i32, ptr %12, align 4, !tbaa !31
  %38 = icmp ne i32 %37, 0
  br i1 %38, label %39, label %40

39:                                               ; preds = %34
  br label %69

40:                                               ; preds = %34
  br label %41

41:                                               ; preds = %40
  br label %42

42:                                               ; preds = %41
  %43 = load ptr, ptr %10, align 8, !tbaa !182
  %44 = getelementptr inbounds nuw %struct.SDF_Edge_, ptr %43, i32 0, i32 4
  store i32 3, ptr %44, align 8, !tbaa !185
  %45 = load ptr, ptr %10, align 8, !tbaa !182
  %46 = getelementptr inbounds nuw %struct.SDF_Edge_, ptr %45, i32 0, i32 0
  %47 = load ptr, ptr %11, align 8, !tbaa !167
  %48 = getelementptr inbounds nuw %struct.SDF_Contour_, ptr %47, i32 0, i32 0
  call void @llvm.memcpy.p0.p0.i64(ptr align 8 %46, ptr align 8 %48, i64 16, i1 false), !tbaa.struct !146
  %49 = load ptr, ptr %10, align 8, !tbaa !182
  %50 = getelementptr inbounds nuw %struct.SDF_Edge_, ptr %49, i32 0, i32 2
  %51 = load ptr, ptr %5, align 8, !tbaa !32
  call void @llvm.memcpy.p0.p0.i64(ptr align 8 %50, ptr align 8 %51, i64 16, i1 false), !tbaa.struct !146
  %52 = load ptr, ptr %10, align 8, !tbaa !182
  %53 = getelementptr inbounds nuw %struct.SDF_Edge_, ptr %52, i32 0, i32 3
  %54 = load ptr, ptr %6, align 8, !tbaa !32
  call void @llvm.memcpy.p0.p0.i64(ptr align 8 %53, ptr align 8 %54, i64 16, i1 false), !tbaa.struct !146
  %55 = load ptr, ptr %10, align 8, !tbaa !182
  %56 = getelementptr inbounds nuw %struct.SDF_Edge_, ptr %55, i32 0, i32 1
  %57 = load ptr, ptr %7, align 8, !tbaa !32
  call void @llvm.memcpy.p0.p0.i64(ptr align 8 %56, ptr align 8 %57, i64 16, i1 false), !tbaa.struct !146
  %58 = load ptr, ptr %11, align 8, !tbaa !167
  %59 = getelementptr inbounds nuw %struct.SDF_Contour_, ptr %58, i32 0, i32 1
  %60 = load ptr, ptr %59, align 8, !tbaa !187
  %61 = load ptr, ptr %10, align 8, !tbaa !182
  %62 = getelementptr inbounds nuw %struct.SDF_Edge_, ptr %61, i32 0, i32 5
  store ptr %60, ptr %62, align 8, !tbaa !188
  %63 = load ptr, ptr %10, align 8, !tbaa !182
  %64 = load ptr, ptr %11, align 8, !tbaa !167
  %65 = getelementptr inbounds nuw %struct.SDF_Contour_, ptr %64, i32 0, i32 1
  store ptr %63, ptr %65, align 8, !tbaa !187
  %66 = load ptr, ptr %11, align 8, !tbaa !167
  %67 = getelementptr inbounds nuw %struct.SDF_Contour_, ptr %66, i32 0, i32 0
  %68 = load ptr, ptr %7, align 8, !tbaa !32
  call void @llvm.memcpy.p0.p0.i64(ptr align 8 %67, ptr align 8 %68, i64 16, i1 false), !tbaa.struct !146
  br label %69

69:                                               ; preds = %42, %39, %29
  %70 = load i32, ptr %12, align 4, !tbaa !31
  call void @llvm.lifetime.end.p0(i64 8, ptr %13) #7
  call void @llvm.lifetime.end.p0(i64 4, ptr %12) #7
  call void @llvm.lifetime.end.p0(i64 8, ptr %11) #7
  call void @llvm.lifetime.end.p0(i64 8, ptr %10) #7
  call void @llvm.lifetime.end.p0(i64 8, ptr %9) #7
  ret i32 %70
}