; Function Attrs: nounwind uwtable
define internal i32 @sdf_cubic_to(ptr noundef readonly %0, ptr noundef readonly %1, ptr noundef readonly %2, ptr noundef readonly captures(none) %3) #2 {
  %5 = alloca i32, align 4
  %6 = icmp ne ptr %1, null
  %7 = icmp ne ptr %0, null
  %or.cond = and i1 %7, %6
  %8 = icmp ne ptr %2, null
  %or.cond3 = and i1 %or.cond, %8
  br i1 %or.cond3, label %9, label %24

9:                                                ; preds = %4
  %10 = load ptr, ptr %3, align 8, !tbaa !99
  %11 = getelementptr inbounds nuw i8, ptr %3, i64 8
  %12 = load ptr, ptr %11, align 8, !tbaa !129
  call void @llvm.lifetime.start.p0(i64 4, ptr nonnull %5) #11
  store i32 0, ptr %5, align 4, !tbaa !21
  %.not.i = icmp eq ptr %10, null
  br i1 %.not.i, label %sdf_edge_new.exit.thread, label %13

13:                                               ; preds = %9
  %14 = call ptr @ft_mem_qalloc(ptr noundef nonnull %10, i64 noundef 80, ptr noundef nonnull %5) #11
  %15 = load i32, ptr %5, align 4, !tbaa !21
  %.not8.i = icmp eq i32 %15, 0
  br i1 %.not8.i, label %16, label %sdf_edge_new.exit.thread

sdf_edge_new.exit.thread:                         ; preds = %13, %9
  %.ph = phi i32 [ 6, %9 ], [ %15, %13 ]
  call void @llvm.lifetime.end.p0(i64 4, ptr nonnull %5) #11
  br label %24

16:                                               ; preds = %13
  call void @llvm.memset.p0.i64(ptr noundef nonnull align 8 dereferenceable(80) %14, i8 0, i64 80, i1 false)
  call void @llvm.lifetime.end.p0(i64 4, ptr nonnull %5) #11
  %17 = getelementptr inbounds nuw i8, ptr %14, i64 64
  store i32 3, ptr %17, align 8, !tbaa !136
  call void @llvm.memcpy.p0.p0.i64(ptr noundef nonnull align 8 dereferenceable(16) %14, ptr noundef nonnull align 8 dereferenceable(16) %12, i64 16, i1 false), !tbaa.struct !119
  %18 = getelementptr inbounds nuw i8, ptr %14, i64 32
  call void @llvm.memcpy.p0.p0.i64(ptr noundef nonnull align 8 dereferenceable(16) %18, ptr noundef nonnull align 8 dereferenceable(16) %0, i64 16, i1 false), !tbaa.struct !119
  %19 = getelementptr inbounds nuw i8, ptr %14, i64 48
  call void @llvm.memcpy.p0.p0.i64(ptr noundef nonnull align 8 dereferenceable(16) %19, ptr noundef nonnull align 8 dereferenceable(16) %1, i64 16, i1 false), !tbaa.struct !119
  %20 = getelementptr inbounds nuw i8, ptr %14, i64 16
  call void @llvm.memcpy.p0.p0.i64(ptr noundef nonnull align 8 dereferenceable(16) %20, ptr noundef nonnull align 8 dereferenceable(16) %2, i64 16, i1 false), !tbaa.struct !119
  %21 = getelementptr inbounds nuw i8, ptr %12, i64 16
  %22 = load ptr, ptr %21, align 8, !tbaa !135
  %23 = getelementptr inbounds nuw i8, ptr %14, i64 72
  store ptr %22, ptr %23, align 8, !tbaa !146
  store ptr %14, ptr %21, align 8, !tbaa !135
  call void @llvm.memcpy.p0.p0.i64(ptr noundef nonnull align 8 dereferenceable(16) %12, ptr noundef nonnull align 8 dereferenceable(16) %2, i64 16, i1 false), !tbaa.struct !119
  br label %24

24:                                               ; preds = %sdf_edge_new.exit.thread, %4, %16
  %.0 = phi i32 [ 0, %16 ], [ 6, %4 ], [ %.ph, %sdf_edge_new.exit.thread ]
  ret i32 %.0
}